target datalayout = "e-m:e-p270:32:32-p271:32:32-p272:64:64-i64:64-i128:128-f80:128-n8:16:32:64-S128"
target triple = "x86_64-pc-linux-gnu"

%struct.KINMemRec = type { double, ptr, ptr, double, double, i32, i32, i64, i64, i64, i64, i32, i32, i32, i32, i32, i32, i32, i32, i32, double, double, double, double, double, double, double, double, double, i32, double, i64, i64, i64, i64, i64, i64, i64, ptr, ptr, ptr, ptr, ptr, ptr, ptr, ptr, ptr, ptr, ptr, ptr, ptr, ptr, ptr, ptr, ptr, ptr, i64, i32, i32, i64, i64, i64, i64, ptr, ptr, ptr, ptr, i32, ptr, double, double, double, double, double, i32, double, double, double, i32, ptr, ptr, ptr, ptr, ptr, ptr }

; Function Attrs: nounwind uwtable
define internal void @KINFreeVectors(ptr noundef %0) #0 {
  %2 = alloca ptr, align 8
  store ptr %0, ptr %2, align 8, !tbaa !3
  %3 = load ptr, ptr %2, align 8, !tbaa !3
  %4 = getelementptr inbounds nuw %struct.KINMemRec, ptr %3, i32 0, i32 39
  %5 = load ptr, ptr %4, align 8, !tbaa !97
  %6 = icmp ne ptr %5, null
  br i1 %6, label %7, label %11

7:                                                ; preds = %1
  %8 = load ptr, ptr %2, align 8, !tbaa !3
  %9 = getelementptr inbounds nuw %struct.KINMemRec, ptr %8, i32 0, i32 39
  %10 = load ptr, ptr %9, align 8, !tbaa !97
  call void @N_VDestroy(ptr noundef %10)
  br label %11

11:                                               ; preds = %7, %1
  %12 = load ptr, ptr %2, align 8, !tbaa !3
  %13 = getelementptr inbounds nuw %struct.KINMemRec, ptr %12, i32 0, i32 40
  %14 = load ptr, ptr %13, align 8, !tbaa !98
  %15 = icmp ne ptr %14, null
  br i1 %15, label %16, label %20

16:                                               ; preds = %11
  %17 = load ptr, ptr %2, align 8, !tbaa !3
  %18 = getelementptr inbounds nuw %struct.KINMemRec, ptr %17, i32 0, i32 40
  %19 = load ptr, ptr %18, align 8, !tbaa !98
  call void @N_VDestroy(ptr noundef %19)
  br label %20

20:                                               ; preds = %16, %11
  %21 = load ptr, ptr %2, align 8, !tbaa !3
  %22 = getelementptr inbounds nuw %struct.KINMemRec, ptr %21, i32 0, i32 44
  %23 = load ptr, ptr %22, align 8, !tbaa !99
  %24 = icmp ne ptr %23, null
  br i1 %24, label %25, label %29

25:                                               ; preds = %20
  %26 = load ptr, ptr %2, align 8, !tbaa !3
  %27 = getelementptr inbounds nuw %struct.KINMemRec, ptr %26, i32 0, i32 44
  %28 = load ptr, ptr %27, align 8, !tbaa !99
  call void @N_VDestroy(ptr noundef %28)
  br label %29

29:                                               ; preds = %25, %20
  %30 = load ptr, ptr %2, align 8, !tbaa !3
  %31 = getelementptr inbounds nuw %struct.KINMemRec, ptr %30, i32 0, i32 46
  %32 = load ptr, ptr %31, align 8, !tbaa !100
  %33 = icmp ne ptr %32, null
  br i1 %33, label %34, label %38

34:                                               ; preds = %29
  %35 = load ptr, ptr %2, align 8, !tbaa !3
  %36 = getelementptr inbounds nuw %struct.KINMemRec, ptr %35, i32 0, i32 46
  %37 = load ptr, ptr %36, align 8, !tbaa !100
  call void @N_VDestroy(ptr noundef %37)
  br label %38

38:                                               ; preds = %34, %29
  %39 = load ptr, ptr %2, align 8, !tbaa !3
  %40 = getelementptr inbounds nuw %struct.KINMemRec, ptr %39, i32 0, i32 47
  %41 = load ptr, ptr %40, align 8, !tbaa !101
  %42 = icmp ne ptr %41, null
  br i1 %42, label %43, label %47

43:                                               ; preds = %38
  %44 = load ptr, ptr %2, align 8, !tbaa !3
  %45 = getelementptr inbounds nuw %struct.KINMemRec, ptr %44, i32 0, i32 47
  %46 = load ptr, ptr %45, align 8, !tbaa !101
  call void @N_VDestroy(ptr noundef %46)
  br label %47

47:                                               ; preds = %43, %38
  %48 = load ptr, ptr %2, align 8, !tbaa !3
  %49 = getelementptr inbounds nuw %struct.KINMemRec, ptr %48, i32 0, i32 5
  %50 = load i32, ptr %49, align 8, !tbaa !103
  %51 = icmp eq i32 %50, 2
  br i1 %51, label %52, label %61

52:                                               ; preds = %47
  %53 = load ptr, ptr %2, align 8, !tbaa !3
  %54 = getelementptr inbounds nuw %struct.KINMemRec, ptr %53, i32 0, i32 41
  %55 = load ptr, ptr %54, align 8, !tbaa !112
  %56 = icmp ne ptr %55, null
  br i1 %56, label %57, label %61

57:                                               ; preds = %52
  %58 = load ptr, ptr %2, align 8, !tbaa !3
  %59 = getelementptr inbounds nuw %struct.KINMemRec, ptr %58, i32 0, i32 41
  %60 = load ptr, ptr %59, align 8, !tbaa !112
  call void @N_VDestroy(ptr noundef %60)
  br label %61

61:                                               ; preds = %57, %52, %47
  %62 = load ptr, ptr %2, align 8, !tbaa !3
  %63 = getelementptr inbounds nuw %struct.KINMemRec, ptr %62, i32 0, i32 5
  %64 = load i32, ptr %63, align 8, !tbaa !103
  %65 = icmp eq i32 %64, 2
  br i1 %65, label %71, label %66

66:                                               ; preds = %61
  %67 = load ptr, ptr %2, align 8, !tbaa !3
  %68 = getelementptr inbounds nuw %struct.KINMemRec, ptr %67, i32 0, i32 5
  %69 = load i32, ptr %68, align 8, !tbaa !103
  %70 = icmp eq i32 %69, 3
  br i1 %70, label %71, label %83

71:                                               ; preds = %66, %61
  %72 = load ptr, ptr %2, align 8, !tbaa !3
  %73 = getelementptr inbounds nuw %struct.KINMemRec, ptr %72, i32 0, i32 56
  %74 = load i64, ptr %73, align 8, !tbaa !31
  %75 = icmp sgt i64 %74, 0
  br i1 %75, label %76, label %83

76:                                               ; preds = %71
  %77 = load ptr, ptr %2, align 8, !tbaa !3
  %78 = getelementptr inbounds nuw %struct.KINMemRec, ptr %77, i32 0, i32 55
  %79 = load ptr, ptr %78, align 8, !tbaa !30
  call void @free(ptr noundef %79) #8
  %80 = load ptr, ptr %2, align 8, !tbaa !3
  %81 = getelementptr inbounds nuw %struct.KINMemRec, ptr %80, i32 0, i32 54
  %82 = load ptr, ptr %81, align 8, !tbaa !29
  call void @free(ptr noundef %82) #8
  br label %83

83:                                               ; preds = %76, %71, %66
  %84 = load ptr, ptr %2, align 8, !tbaa !3
  %85 = getelementptr inbounds nuw %struct.KINMemRec, ptr %84, i32 0, i32 56
  %86 = load i64, ptr %85, align 8, !tbaa !31
  %87 = icmp ne i64 %86, 0
  br i1 %87, label %88, label %191

88:                                               ; preds = %83
  %89 = load ptr, ptr %2, align 8, !tbaa !3
  %90 = getelementptr inbounds nuw %struct.KINMemRec, ptr %89, i32 0, i32 48
  %91 = load ptr, ptr %90, align 8, !tbaa !23
  %92 = icmp ne ptr %91, null
  br i1 %92, label %93, label %97

93:                                               ; preds = %88
  %94 = load ptr, ptr %2, align 8, !tbaa !3
  %95 = getelementptr inbounds nuw %struct.KINMemRec, ptr %94, i32 0, i32 48
  %96 = load ptr, ptr %95, align 8, !tbaa !23
  call void @N_VDestroy(ptr noundef %96)
  br label %97

97:                                               ; preds = %93, %88
  %98 = load ptr, ptr %2, align 8, !tbaa !3
  %99 = getelementptr inbounds nuw %struct.KINMemRec, ptr %98, i32 0, i32 49
  %100 = load ptr, ptr %99, align 8, !tbaa !24
  %101 = icmp ne ptr %100, null
  br i1 %101, label %102, label %106

102:                                              ; preds = %97
  %103 = load ptr, ptr %2, align 8, !tbaa !3
  %104 = getelementptr inbounds nuw %struct.KINMemRec, ptr %103, i32 0, i32 49
  %105 = load ptr, ptr %104, align 8, !tbaa !24
  call void @N_VDestroy(ptr noundef %105)
  br label %106

106:                                              ; preds = %102, %97
  %107 = load ptr, ptr %2, align 8, !tbaa !3
  %108 = getelementptr inbounds nuw %struct.KINMemRec, ptr %107, i32 0, i32 50
  %109 = load ptr, ptr %108, align 8, !tbaa !25
  %110 = load ptr, ptr %2, align 8, !tbaa !3
  %111 = getelementptr inbounds nuw %struct.KINMemRec, ptr %110, i32 0, i32 56
  %112 = load i64, ptr %111, align 8, !tbaa !31
  %113 = trunc i64 %112 to i32
  call void @N_VDestroyVectorArray(ptr noundef %109, i32 noundef %113)
  %114 = load ptr, ptr %2, align 8, !tbaa !3
  %115 = getelementptr inbounds nuw %struct.KINMemRec, ptr %114, i32 0, i32 51
  %116 = load ptr, ptr %115, align 8, !tbaa !26
  %117 = load ptr, ptr %2, align 8, !tbaa !3
  %118 = getelementptr inbounds nuw %struct.KINMemRec, ptr %117, i32 0, i32 56
  %119 = load i64, ptr %118, align 8, !tbaa !31
  %120 = trunc i64 %119 to i32
  call void @N_VDestroyVectorArray(ptr noundef %116, i32 noundef %120)
  %121 = load ptr, ptr %2, align 8, !tbaa !3
  %122 = getelementptr inbounds nuw %struct.KINMemRec, ptr %121, i32 0, i32 56
  %123 = load i64, ptr %122, align 8, !tbaa !31
  %124 = mul nsw i64 2, %123
  %125 = load ptr, ptr %2, align 8, !tbaa !3
  %126 = getelementptr inbounds nuw %struct.KINMemRec, ptr %125, i32 0, i32 59
  %127 = load i64, ptr %126, align 8, !tbaa !68
  %128 = mul nsw i64 %124, %127
  %129 = add nsw i64 %128, 2
  %130 = load ptr, ptr %2, align 8, !tbaa !3
  %131 = getelementptr inbounds nuw %struct.KINMemRec, ptr %130, i32 0, i32 61
  %132 = load i64, ptr %131, align 8, !tbaa !66
  %133 = sub nsw i64 %132, %129
  store i64 %133, ptr %131, align 8, !tbaa !66
  %134 = load ptr, ptr %2, align 8, !tbaa !3
  %135 = getelementptr inbounds nuw %struct.KINMemRec, ptr %134, i32 0, i32 56
  %136 = load i64, ptr %135, align 8, !tbaa !31
  %137 = mul nsw i64 2, %136
  %138 = load ptr, ptr %2, align 8, !tbaa !3
  %139 = getelementptr inbounds nuw %struct.KINMemRec, ptr %138, i32 0, i32 60
  %140 = load i64, ptr %139, align 8, !tbaa !69
  %141 = mul nsw i64 %137, %140
  %142 = add nsw i64 %141, 2
  %143 = load ptr, ptr %2, align 8, !tbaa !3
  %144 = getelementptr inbounds nuw %struct.KINMemRec, ptr %143, i32 0, i32 62
  %145 = load i64, ptr %144, align 8, !tbaa !67
  %146 = sub nsw i64 %145, %142
  store i64 %146, ptr %144, align 8, !tbaa !67
  %147 = load ptr, ptr %2, align 8, !tbaa !3
  %148 = getelementptr inbounds nuw %struct.KINMemRec, ptr %147, i32 0, i32 57
  %149 = load i32, ptr %148, align 8, !tbaa !32
  %150 = icmp ne i32 %149, 0
  br i1 %150, label %151, label %190

151:                                              ; preds = %106
  %152 = load ptr, ptr %2, align 8, !tbaa !3
  %153 = getelementptr inbounds nuw %struct.KINMemRec, ptr %152, i32 0, i32 52
  %154 = load ptr, ptr %153, align 8, !tbaa !27
  %155 = load ptr, ptr %2, align 8, !tbaa !3
  %156 = getelementptr inbounds nuw %struct.KINMemRec, ptr %155, i32 0, i32 56
  %157 = load i64, ptr %156, align 8, !tbaa !31
  %158 = trunc i64 %157 to i32
  call void @N_VDestroyVectorArray(ptr noundef %154, i32 noundef %158)
  %159 = load ptr, ptr %2, align 8, !tbaa !3
  %160 = getelementptr inbounds nuw %struct.KINMemRec, ptr %159, i32 0, i32 53
  %161 = load ptr, ptr %160, align 8, !tbaa !28
  %162 = load ptr, ptr %2, align 8, !tbaa !3
  %163 = getelementptr inbounds nuw %struct.KINMemRec, ptr %162, i32 0, i32 56
  %164 = load i64, ptr %163, align 8, !tbaa !31
  %165 = trunc i64 %164 to i32
  call void @N_VDestroyVectorArray(ptr noundef %161, i32 noundef %165)
  %166 = load ptr, ptr %2, align 8, !tbaa !3
  %167 = getelementptr inbounds nuw %struct.KINMemRec, ptr %166, i32 0, i32 56
  %168 = load i64, ptr %167, align 8, !tbaa !31
  %169 = mul nsw i64 2, %168
  %170 = load ptr, ptr %2, align 8, !tbaa !3
  %171 = getelementptr inbounds nuw %struct.KINMemRec, ptr %170, i32 0, i32 59
  %172 = load i64, ptr %171, align 8, !tbaa !68
  %173 = mul nsw i64 %169, %172
  %174 = load ptr, ptr %2, align 8, !tbaa !3
  %175 = getelementptr inbounds nuw %struct.KINMemRec, ptr %174, i32 0, i32 61
  %176 = load i64, ptr %175, align 8, !tbaa !66
  %177 = sub nsw i64 %176, %173
  store i64 %177, ptr %175, align 8, !tbaa !66
  %178 = load ptr, ptr %2, align 8, !tbaa !3
  %179 = getelementptr inbounds nuw %struct.KINMemRec, ptr %178, i32 0, i32 56
  %180 = load i64, ptr %179, align 8, !tbaa !31
  %181 = mul nsw i64 2, %180
  %182 = load ptr, ptr %2, align 8, !tbaa !3
  %183 = getelementptr inbounds nuw %struct.KINMemRec, ptr %182, i32 0, i32 60
  %184 = load i64, ptr %183, align 8, !tbaa !69
  %185 = mul nsw i64 %181, %184
  %186 = load ptr, ptr %2, align 8, !tbaa !3
  %187 = getelementptr inbounds nuw %struct.KINMemRec, ptr %186, i32 0, i32 62
  %188 = load i64, ptr %187, align 8, !tbaa !67
  %189 = sub nsw i64 %188, %185
  store i64 %189, ptr %187, align 8, !tbaa !67
  br label %190

190:                                              ; preds = %151, %106
  br label %191

191:                                              ; preds = %190, %83
  %192 = load ptr, ptr %2, align 8, !tbaa !3
  %193 = getelementptr inbounds nuw %struct.KINMemRec, ptr %192, i32 0, i32 59
  %194 = load i64, ptr %193, align 8, !tbaa !68
  %195 = mul nsw i64 5, %194
  %196 = load ptr, ptr %2, align 8, !tbaa !3
  %197 = getelementptr inbounds nuw %struct.KINMemRec, ptr %196, i32 0, i32 61
  %198 = load i64, ptr %197, align 8, !tbaa !66
  %199 = sub nsw i64 %198, %195
  store i64 %199, ptr %197, align 8, !tbaa !66
  %200 = load ptr, ptr %2, align 8, !tbaa !3
  %201 = getelementptr inbounds nuw %struct.KINMemRec, ptr %200, i32 0, i32 60
  %202 = load i64, ptr %201, align 8, !tbaa !69
  %203 = mul nsw i64 5, %202
  %204 = load ptr, ptr %2, align 8, !tbaa !3
  %205 = getelementptr inbounds nuw %struct.KINMemRec, ptr %204, i32 0, i32 62
  %206 = load i64, ptr %205, align 8, !tbaa !67
  %207 = sub nsw i64 %206, %203
  store i64 %207, ptr %205, align 8, !tbaa !67
  %208 = load ptr, ptr %2, align 8, !tbaa !3
  %209 = getelementptr inbounds nuw %struct.KINMemRec, ptr %208, i32 0, i32 14
  %210 = load i32, ptr %209, align 4, !tbaa !34
  %211 = icmp ne i32 %210, 0
  br i1 %211, label %212, label %236

212:                                              ; preds = %191
  %213 = load ptr, ptr %2, align 8, !tbaa !3
  %214 = getelementptr inbounds nuw %struct.KINMemRec, ptr %213, i32 0, i32 45
  %215 = load ptr, ptr %214, align 8, !tbaa !20
  %216 = icmp ne ptr %215, null
  br i1 %216, label %217, label %221

217:                                              ; preds = %212
  %218 = load ptr, ptr %2, align 8, !tbaa !3
  %219 = getelementptr inbounds nuw %struct.KINMemRec, ptr %218, i32 0, i32 45
  %220 = load ptr, ptr %219, align 8, !tbaa !20
  call void @N_VDestroy(ptr noundef %220)
  br label %221

221:                                              ; preds = %217, %212
  %222 = load ptr, ptr %2, align 8, !tbaa !3
  %223 = getelementptr inbounds nuw %struct.KINMemRec, ptr %222, i32 0, i32 59
  %224 = load i64, ptr %223, align 8, !tbaa !68
  %225 = load ptr, ptr %2, align 8, !tbaa !3
  %226 = getelementptr inbounds nuw %struct.KINMemRec, ptr %225, i32 0, i32 61
  %227 = load i64, ptr %226, align 8, !tbaa !66
  %228 = sub nsw i64 %227, %224
  store i64 %228, ptr %226, align 8, !tbaa !66
  %229 = load ptr, ptr %2, align 8, !tbaa !3
  %230 = getelementptr inbounds nuw %struct.KINMemRec, ptr %229, i32 0, i32 60
  %231 = load i64, ptr %230, align 8, !tbaa !69
  %232 = load ptr, ptr %2, align 8, !tbaa !3
  %233 = getelementptr inbounds nuw %struct.KINMemRec, ptr %232, i32 0, i32 62
  %234 = load i64, ptr %233, align 8, !tbaa !67
  %235 = sub nsw i64 %234, %231
  store i64 %235, ptr %233, align 8, !tbaa !67
  br label %236

236:                                              ; preds = %221, %191
  ret void
}

; Function Attrs: nounwind uwtable
define void @KINFree(ptr noundef %0) #0 {
  %2 = alloca ptr, align 8
  %3 = alloca ptr, align 8
  %4 = alloca i32, align 4
  store ptr %0, ptr %2, align 8, !tbaa !73
  call void @llvm.lifetime.start.p0(i64 8, ptr %3) #8
  %5 = load ptr, ptr %2, align 8, !tbaa !73
  %6 = load ptr, ptr %5, align 8, !tbaa !73
  %7 = icmp eq ptr %6, null
  br i1 %7, label %8, label %9

8:                                                ; preds = %1
  store i32 1, ptr %4, align 4
  br label %26

9:                                                ; preds = %1
  %10 = load ptr, ptr %2, align 8, !tbaa !73
  %11 = load ptr, ptr %10, align 8, !tbaa !73
  store ptr %11, ptr %3, align 8, !tbaa !3
  %12 = load ptr, ptr %3, align 8, !tbaa !3
  call void @KINFreeVectors(ptr noundef %12)
  %13 = load ptr, ptr %3, align 8, !tbaa !3
  %14 = getelementptr inbounds nuw %struct.KINMemRec, ptr %13, i32 0, i32 66
  %15 = load ptr, ptr %14, align 8, !tbaa !84
  %16 = icmp ne ptr %15, null
  br i1 %16, label %17, label %22

17:                                               ; preds = %9
  %18 = load ptr, ptr %3, align 8, !tbaa !3
  %19 = getelementptr inbounds nuw %struct.KINMemRec, ptr %18, i32 0, i32 66
  %20 = load ptr, ptr %19, align 8, !tbaa !84
  %21 = load ptr, ptr %3, align 8, !tbaa !3
  call void %20(ptr noundef %21)
  br label %22

22:                                               ; preds = %17, %9
  %23 = load ptr, ptr %2, align 8, !tbaa !73
  %24 = load ptr, ptr %23, align 8, !tbaa !73
  call void @free(ptr noundef %24) #8
  %25 = load ptr, ptr %2, align 8, !tbaa !73
  store ptr null, ptr %25, align 8, !tbaa !73
  store i32 0, ptr %4, align 4
  br label %26

26:                                               ; preds = %22, %8
  call void @llvm.lifetime.end.p0(i64 8, ptr %3) #8
  %27 = load i32, ptr %4, align 4
  switch i32 %27, label %29 [
    i32 0, label %28
    i32 1, label %28
  ]

28:                                               ; preds = %26, %26
  ret void

29:                                               ; preds = %26
  unreachable
}