; Function Attrs: nounwind uwtable
define void @KINFree(ptr noundef captures(none) %0) local_unnamed_addr #0 {
  %2 = load ptr, ptr %0, align 8, !tbaa !122
  %3 = icmp eq ptr %2, null
  br i1 %3, label %126, label %4

4:                                                ; preds = %1
  %5 = getelementptr inbounds nuw i8, ptr %2, i64 272
  %6 = load ptr, ptr %5, align 8, !tbaa !61
  %.not.i = icmp eq ptr %6, null
  br i1 %.not.i, label %8, label %7

7:                                                ; preds = %4
  tail call void @N_VDestroy(ptr noundef nonnull %6) #14
  br label %8

8:                                                ; preds = %7, %4
  %9 = getelementptr inbounds nuw i8, ptr %2, i64 280
  %10 = load ptr, ptr %9, align 8, !tbaa !62
  %.not64.i = icmp eq ptr %10, null
  br i1 %.not64.i, label %12, label %11

11:                                               ; preds = %8
  tail call void @N_VDestroy(ptr noundef nonnull %10) #14
  br label %12

12:                                               ; preds = %11, %8
  %13 = getelementptr inbounds nuw i8, ptr %2, i64 312
  %14 = load ptr, ptr %13, align 8, !tbaa !63
  %.not65.i = icmp eq ptr %14, null
  br i1 %.not65.i, label %16, label %15

15:                                               ; preds = %12
  tail call void @N_VDestroy(ptr noundef nonnull %14) #14
  br label %16

16:                                               ; preds = %15, %12
  %17 = getelementptr inbounds nuw i8, ptr %2, i64 328
  %18 = load ptr, ptr %17, align 8, !tbaa !64
  %.not66.i = icmp eq ptr %18, null
  br i1 %.not66.i, label %20, label %19

19:                                               ; preds = %16
  tail call void @N_VDestroy(ptr noundef nonnull %18) #14
  br label %20

20:                                               ; preds = %19, %16
  %21 = getelementptr inbounds nuw i8, ptr %2, i64 336
  %22 = load ptr, ptr %21, align 8, !tbaa !65
  %.not67.i = icmp eq ptr %22, null
  br i1 %.not67.i, label %24, label %23

23:                                               ; preds = %20
  tail call void @N_VDestroy(ptr noundef nonnull %22) #14
  br label %24

24:                                               ; preds = %23, %20
  %25 = getelementptr inbounds nuw i8, ptr %2, i64 40
  %26 = load i32, ptr %25, align 8, !tbaa !81
  %27 = icmp eq i32 %26, 2
  br i1 %27, label %28, label %32

28:                                               ; preds = %24
  %29 = getelementptr inbounds nuw i8, ptr %2, i64 288
  %30 = load ptr, ptr %29, align 8, !tbaa !102
  %.not68.i = icmp eq ptr %30, null
  br i1 %.not68.i, label %.thread.i, label %31

31:                                               ; preds = %28
  tail call void @N_VDestroy(ptr noundef nonnull %30) #14
  %.pre.i = load i32, ptr %25, align 8, !tbaa !81
  br label %32

32:                                               ; preds = %31, %24
  %33 = phi i32 [ %.pre.i, %31 ], [ %26, %24 ]
  %34 = and i32 %33, -2
  %switch.i = icmp eq i32 %34, 2
  br i1 %switch.i, label %.thread.i, label %43

.thread.i:                                        ; preds = %32, %28
  %35 = getelementptr inbounds nuw i8, ptr %2, i64 408
  %36 = load i64, ptr %35, align 8, !tbaa !66
  %37 = icmp sgt i64 %36, 0
  br i1 %37, label %38, label %43

38:                                               ; preds = %.thread.i
  %39 = getelementptr inbounds nuw i8, ptr %2, i64 400
  %40 = load ptr, ptr %39, align 8, !tbaa !67
  tail call void @free(ptr noundef %40) #14
  %41 = getelementptr inbounds nuw i8, ptr %2, i64 392
  %42 = load ptr, ptr %41, align 8, !tbaa !68
  tail call void @free(ptr noundef %42) #14
  br label %43

43:                                               ; preds = %38, %.thread.i, %32
  %44 = getelementptr inbounds nuw i8, ptr %2, i64 408
  %45 = load i64, ptr %44, align 8, !tbaa !66
  %.not69.i = icmp eq i64 %45, 0
  br i1 %.not69.i, label %._crit_edge.i, label %46

._crit_edge.i:                                    ; preds = %43
  %.phi.trans.insert.i = getelementptr inbounds nuw i8, ptr %2, i64 424
  %.pre80.i = load i64, ptr %.phi.trans.insert.i, align 8, !tbaa !59
  %.phi.trans.insert81.i = getelementptr inbounds nuw i8, ptr %2, i64 440
  %.pre82.i = load i64, ptr %.phi.trans.insert81.i, align 8, !tbaa !40
  %.phi.trans.insert83.i = getelementptr inbounds nuw i8, ptr %2, i64 432
  %.pre84.i = load i64, ptr %.phi.trans.insert83.i, align 8, !tbaa !60
  %.phi.trans.insert85.i = getelementptr inbounds nuw i8, ptr %2, i64 448
  %.pre86.i = load i64, ptr %.phi.trans.insert85.i, align 8, !tbaa !41
  br label %97

46:                                               ; preds = %43
  %47 = getelementptr inbounds nuw i8, ptr %2, i64 344
  %48 = load ptr, ptr %47, align 8, !tbaa !69
  %.not70.i = icmp eq ptr %48, null
  br i1 %.not70.i, label %50, label %49

49:                                               ; preds = %46
  tail call void @N_VDestroy(ptr noundef nonnull %48) #14
  br label %50

50:                                               ; preds = %49, %46
  %51 = getelementptr inbounds nuw i8, ptr %2, i64 352
  %52 = load ptr, ptr %51, align 8, !tbaa !70
  %.not71.i = icmp eq ptr %52, null
  br i1 %.not71.i, label %54, label %53

53:                                               ; preds = %50
  tail call void @N_VDestroy(ptr noundef nonnull %52) #14
  br label %54

54:                                               ; preds = %53, %50
  %55 = getelementptr inbounds nuw i8, ptr %2, i64 360
  %56 = load ptr, ptr %55, align 8, !tbaa !71
  %57 = load i64, ptr %44, align 8, !tbaa !66
  %58 = trunc i64 %57 to i32
  tail call void @N_VDestroyVectorArray(ptr noundef %56, i32 noundef %58) #14
  %59 = getelementptr inbounds nuw i8, ptr %2, i64 368
  %60 = load ptr, ptr %59, align 8, !tbaa !72
  %61 = load i64, ptr %44, align 8, !tbaa !66
  %62 = trunc i64 %61 to i32
  tail call void @N_VDestroyVectorArray(ptr noundef %60, i32 noundef %62) #14
  %63 = load i64, ptr %44, align 8, !tbaa !66
  %64 = shl nsw i64 %63, 1
  %65 = getelementptr inbounds nuw i8, ptr %2, i64 424
  %66 = load i64, ptr %65, align 8, !tbaa !59
  %67 = mul nsw i64 %64, %66
  %68 = getelementptr inbounds nuw i8, ptr %2, i64 440
  %69 = load i64, ptr %68, align 8, !tbaa !40
  %.neg77.i = add i64 %69, -2
  %70 = sub i64 %.neg77.i, %67
  store i64 %70, ptr %68, align 8, !tbaa !40
  %71 = getelementptr inbounds nuw i8, ptr %2, i64 432
  %72 = load i64, ptr %71, align 8, !tbaa !60
  %73 = mul nsw i64 %72, %64
  %74 = getelementptr inbounds nuw i8, ptr %2, i64 448
  %75 = load i64, ptr %74, align 8, !tbaa !41
  %.neg79.i = add i64 %75, -2
  %76 = sub i64 %.neg79.i, %73
  store i64 %76, ptr %74, align 8, !tbaa !41
  %77 = getelementptr inbounds nuw i8, ptr %2, i64 416
  %78 = load i32, ptr %77, align 8, !tbaa !73
  %.not72.i = icmp eq i32 %78, 0
  br i1 %.not72.i, label %97, label %79

79:                                               ; preds = %54
  %80 = getelementptr inbounds nuw i8, ptr %2, i64 376
  %81 = load ptr, ptr %80, align 8, !tbaa !74
  %82 = trunc i64 %63 to i32
  tail call void @N_VDestroyVectorArray(ptr noundef %81, i32 noundef %82) #14
  %83 = getelementptr inbounds nuw i8, ptr %2, i64 384
  %84 = load ptr, ptr %83, align 8, !tbaa !75
  %85 = load i64, ptr %44, align 8, !tbaa !66
  %86 = trunc i64 %85 to i32
  tail call void @N_VDestroyVectorArray(ptr noundef %84, i32 noundef %86) #14
  %87 = load i64, ptr %44, align 8, !tbaa !66
  %88 = shl nsw i64 %87, 1
  %89 = load i64, ptr %65, align 8, !tbaa !59
  %90 = mul nsw i64 %88, %89
  %91 = load i64, ptr %68, align 8, !tbaa !40
  %92 = sub nsw i64 %91, %90
  %93 = load i64, ptr %71, align 8, !tbaa !60
  %94 = mul nsw i64 %93, %88
  %95 = load i64, ptr %74, align 8, !tbaa !41
  %96 = sub nsw i64 %95, %94
  br label %97

97:                                               ; preds = %79, %54, %._crit_edge.i
  %98 = phi i64 [ %.pre86.i, %._crit_edge.i ], [ %76, %54 ], [ %96, %79 ]
  %99 = phi i64 [ %.pre84.i, %._crit_edge.i ], [ %72, %54 ], [ %93, %79 ]
  %100 = phi i64 [ %.pre82.i, %._crit_edge.i ], [ %70, %54 ], [ %92, %79 ]
  %101 = phi i64 [ %.pre80.i, %._crit_edge.i ], [ %66, %54 ], [ %89, %79 ]
  %102 = getelementptr inbounds nuw i8, ptr %2, i64 424
  %.neg.i = mul i64 %101, -5
  %103 = getelementptr inbounds nuw i8, ptr %2, i64 440
  %104 = add i64 %.neg.i, %100
  store i64 %104, ptr %103, align 8, !tbaa !40
  %105 = getelementptr inbounds nuw i8, ptr %2, i64 432
  %.neg73.i = mul i64 %99, -5
  %106 = getelementptr inbounds nuw i8, ptr %2, i64 448
  %107 = add i64 %.neg73.i, %98
  store i64 %107, ptr %106, align 8, !tbaa !41
  %108 = getelementptr inbounds nuw i8, ptr %2, i64 92
  %109 = load i32, ptr %108, align 4, !tbaa !82
  %.not74.i = icmp eq i32 %109, 0
  br i1 %.not74.i, label %KINFreeVectors.exit, label %110

110:                                              ; preds = %97
  %111 = getelementptr inbounds nuw i8, ptr %2, i64 320
  %112 = load ptr, ptr %111, align 8, !tbaa !87
  %.not75.i = icmp eq ptr %112, null
  br i1 %.not75.i, label %114, label %113

113:                                              ; preds = %110
  tail call void @N_VDestroy(ptr noundef nonnull %112) #14
  %.pre87.i = load i64, ptr %102, align 8, !tbaa !59
  %.pre88.i = load i64, ptr %103, align 8, !tbaa !40
  %.pre89.i = load i64, ptr %106, align 8, !tbaa !41
  %.pre = load i64, ptr %105, align 8, !tbaa !60
  br label %114

114:                                              ; preds = %113, %110
  %115 = phi i64 [ %.pre, %113 ], [ %99, %110 ]
  %116 = phi i64 [ %.pre89.i, %113 ], [ %107, %110 ]
  %117 = phi i64 [ %.pre88.i, %113 ], [ %104, %110 ]
  %118 = phi i64 [ %.pre87.i, %113 ], [ %101, %110 ]
  %119 = sub nsw i64 %117, %118
  store i64 %119, ptr %103, align 8, !tbaa !40
  %120 = sub nsw i64 %116, %115
  store i64 %120, ptr %106, align 8, !tbaa !41
  br label %KINFreeVectors.exit

KINFreeVectors.exit:                              ; preds = %97, %114
  %121 = getelementptr inbounds nuw i8, ptr %2, i64 480
  %122 = load ptr, ptr %121, align 8, !tbaa !123
  %.not = icmp eq ptr %122, null
  br i1 %.not, label %124, label %123

123:                                              ; preds = %KINFreeVectors.exit
  tail call void %122(ptr noundef nonnull %2) #14
  br label %124

124:                                              ; preds = %123, %KINFreeVectors.exit
  %125 = load ptr, ptr %0, align 8, !tbaa !122
  tail call void @free(ptr noundef %125) #14
  store ptr null, ptr %0, align 8, !tbaa !122
  br label %126

126:                                              ; preds = %1, %124
  ret void
}